; Function Attrs: mustprogress nofree norecurse nosync nounwind willreturn memory(argmem: readwrite) uwtable
define internal nonnull ptr @Unroll3WordsSkip1SwapFirst(ptr nocapture readnone %0, ptr nocapture noundef writeonly %1, ptr noundef readonly %2, i32 %3) #3 {
  %5 = getelementptr inbounds i8, ptr %2, i64 2
  %6 = load i16, ptr %5, align 2
  store i16 %6, ptr %1, align 2
  %7 = getelementptr inbounds i8, ptr %2, i64 4
  %8 = load i16, ptr %7, align 2
  %9 = getelementptr inbounds i8, ptr %1, i64 2
  store i16 %8, ptr %9, align 2
  %10 = getelementptr inbounds i8, ptr %2, i64 6
  %11 = load i16, ptr %10, align 2
  %12 = getelementptr inbounds i8, ptr %1, i64 4
  store i16 %11, ptr %12, align 2
  %13 = getelementptr inbounds i8, ptr %2, i64 8
  ret ptr %13
}